target datalayout = "e-m:e-p270:32:32-p271:32:32-p272:64:64-i64:64-i128:128-f80:128-n8:16:32:64-S128"
target triple = "x86_64-unknown-linux-gnu"

%"class.absl::lts_20230802::Status" = type { i64 }
%"class.absl::lts_20230802::internal_statusor::StatusOrData.407" = type { %union.anon.408, %union.anon.409 }
%union.anon.408 = type { %"class.absl::lts_20230802::Status" }
%union.anon.409 = type { ptr }
%class.anon.441 = type { ptr, ptr }

; Function Attrs: mustprogress nounwind uwtable
define linkonce_odr hidden noundef i64 @_ZN4absl12lts_202308026Status16CodeToInlinedRepENS0_10StatusCodeE(i32 noundef %code) #6 comdat align 2 {
entry:
  %code.addr = alloca i32, align 4
  store i32 %code, ptr %code.addr, align 4
  %0 = load i32, ptr %code.addr, align 4
  %conv = sext i32 %0 to i64
  %shl = shl i64 %conv, 2
  ret i64 %shl
}

; Function Attrs: mustprogress uwtable
define linkonce_odr hidden noundef zeroext i1 @_ZNK4absl12lts_202308026Status2okEv(ptr noundef nonnull align 8 dereferenceable(8) %this) #4 comdat align 2 {
entry:
  %this.addr = alloca ptr, align 8
  store ptr %this, ptr %this.addr, align 8
  %this1 = load ptr, ptr %this.addr, align 8
  %rep_ = getelementptr inbounds %"class.absl::lts_20230802::Status", ptr %this1, i32 0, i32 0
  %0 = load i64, ptr %rep_, align 8
  %call = call noundef i64 @_ZN4absl12lts_202308026Status16CodeToInlinedRepENS0_10StatusCodeE(i32 noundef 0)
  %cmp = icmp eq i64 %0, %call
  ret i1 %cmp
}

; Function Attrs: mustprogress uwtable
define linkonce_odr hidden noundef zeroext i1 @_ZNK4absl12lts_2023080217internal_statusor12StatusOrDataIPKN6google8protobuf7MessageEE2okEv(ptr noundef nonnull align 8 dereferenceable(16) %this) #4 comdat align 2 {
entry:
  %this.addr = alloca ptr, align 8
  store ptr %this, ptr %this.addr, align 8
  %this1 = load ptr, ptr %this.addr, align 8
  %0 = getelementptr inbounds %"class.absl::lts_20230802::internal_statusor::StatusOrData.407", ptr %this1, i32 0, i32 0
  %call = call noundef zeroext i1 @_ZNK4absl12lts_202308026Status2okEv(ptr noundef nonnull align 8 dereferenceable(8) %0)
  ret i1 %call
}

; Function Attrs: mustprogress nounwind uwtable
define linkonce_odr hidden void @_ZN6google8protobuf13json_internal12JsonLocation14SourceLocation7currentEv() #6 comdat align 2 {
entry:
  ret void
}

; Function Attrs: mustprogress uwtable
define linkonce_odr hidden void @_ZNK4absl12lts_2023080217internal_statusor12StatusOrDataIPKN6google8protobuf7MessageEE8EnsureOkEv(ptr noundef nonnull align 8 dereferenceable(16) %this) #4 comdat align 2 {
entry:
  %this.addr = alloca ptr, align 8
  store ptr %this, ptr %this.addr, align 8
  %this1 = load ptr, ptr %this.addr, align 8
  %call = call noundef zeroext i1 @_ZNK4absl12lts_2023080217internal_statusor12StatusOrDataIPKN6google8protobuf7MessageEE2okEv(ptr noundef nonnull align 8 dereferenceable(16) %this1)
  %lnot = xor i1 %call, true
  br i1 %lnot, label %if.then, label %if.end

if.then:                                          ; preds = %entry
  %0 = getelementptr inbounds %"class.absl::lts_20230802::internal_statusor::StatusOrData.407", ptr %this1, i32 0, i32 0
  call void @_ZN4absl12lts_2023080217internal_statusor6Helper5CrashERKNS0_6StatusE(ptr noundef nonnull align 8 dereferenceable(8) %0) #24
  unreachable

if.end:                                           ; preds = %entry
  ret void
}

; Function Attrs: mustprogress uwtable
define internal void @_ZN6google8protobuf13json_internal12_GLOBAL__N_114WriteListValueINS1_23UnparseProto2DescriptorEEEN4absl12lts_202308026StatusERNS1_10JsonWriterERKNT_3MsgERKNSA_4DescE(ptr noalias sret(%"class.absl::lts_20230802::Status") align 8 %agg.result, ptr noundef nonnull align 8 dereferenceable(88) %writer, ptr noundef nonnull align 8 dereferenceable(16) %msg, ptr noundef nonnull align 8 dereferenceable(152) %desc) #4 {
entry:
  %result.ptr = alloca ptr, align 8
  %writer.addr = alloca ptr, align 8
  %msg.addr = alloca ptr, align 8
  %desc.addr = alloca ptr, align 8
  store ptr %agg.result, ptr %result.ptr, align 8
  store ptr %writer, ptr %writer.addr, align 8
  store ptr %msg, ptr %msg.addr, align 8
  store ptr %desc, ptr %desc.addr, align 8
  %0 = load ptr, ptr %writer.addr, align 8
  %1 = load ptr, ptr %msg.addr, align 8
  %2 = load ptr, ptr %desc.addr, align 8
  call void @_ZN6google8protobuf13json_internal12JsonLocation14SourceLocation7currentEv()
  %call = call noundef ptr @_ZN6google8protobuf13json_internal16Proto2Descriptor13MustHaveFieldERKNS0_10DescriptorEiNS1_12JsonLocation14SourceLocationE(ptr noundef nonnull align 8 dereferenceable(152) %2, i32 noundef 1)
  call void @_ZN6google8protobuf13json_internal12_GLOBAL__N_113WriteRepeatedINS1_23UnparseProto2DescriptorEEEN4absl12lts_202308026StatusERNS1_10JsonWriterERKNT_3MsgENSA_5FieldE(ptr sret(%"class.absl::lts_20230802::Status") align 8 %agg.result, ptr noundef nonnull align 8 dereferenceable(88) %0, ptr noundef nonnull align 8 dereferenceable(16) %1, ptr noundef %call)
  ret void
}

; Function Attrs: mustprogress uwtable
define linkonce_odr hidden noundef nonnull align 8 dereferenceable(8) ptr @_ZNR4absl12lts_202308028StatusOrIPKN6google8protobuf7MessageEEdeEv(ptr noundef nonnull align 8 dereferenceable(16) %this) #4 comdat align 2 {
entry:
  %this.addr = alloca ptr, align 8
  store ptr %this, ptr %this.addr, align 8
  %this1 = load ptr, ptr %this.addr, align 8
  call void @_ZNK4absl12lts_2023080217internal_statusor12StatusOrDataIPKN6google8protobuf7MessageEE8EnsureOkEv(ptr noundef nonnull align 8 dereferenceable(16) %this1)
  %0 = getelementptr inbounds %"class.absl::lts_20230802::internal_statusor::StatusOrData.407", ptr %this1, i32 0, i32 1
  ret ptr %0
}

; Function Attrs: mustprogress uwtable
define internal void @_ZZN6google8protobuf13json_internal12_GLOBAL__N_110WriteValueINS1_23UnparseProto2DescriptorEEEN4absl12lts_202308026StatusERNS1_10JsonWriterERKNT_3MsgERKNSA_4DescEbENKUlRKNS0_10DescriptorEE0_clESJ_(ptr noalias sret(%"class.absl::lts_20230802::Status") align 8 %agg.result, ptr noundef nonnull align 8 dereferenceable(16) %this, ptr noundef nonnull align 8 dereferenceable(152) %type) #4 align 2 {
entry:
  %result.ptr = alloca ptr, align 8
  %this.addr = alloca ptr, align 8
  %type.addr = alloca ptr, align 8
  store ptr %agg.result, ptr %result.ptr, align 8
  store ptr %this, ptr %this.addr, align 8
  store ptr %type, ptr %type.addr, align 8
  %this1 = load ptr, ptr %this.addr, align 8
  %0 = getelementptr inbounds %class.anon.441, ptr %this1, i32 0, i32 0
  %1 = load ptr, ptr %0, align 8
  %2 = getelementptr inbounds %class.anon.441, ptr %this1, i32 0, i32 1
  %3 = load ptr, ptr %2, align 8
  %call = call noundef nonnull align 8 dereferenceable(8) ptr @_ZNR4absl12lts_202308028StatusOrIPKN6google8protobuf7MessageEEdeEv(ptr noundef nonnull align 8 dereferenceable(16) %3)
  %4 = load ptr, ptr %call, align 8
  %5 = load ptr, ptr %type.addr, align 8
  call void @_ZN6google8protobuf13json_internal12_GLOBAL__N_114WriteListValueINS1_23UnparseProto2DescriptorEEEN4absl12lts_202308026StatusERNS1_10JsonWriterERKNT_3MsgERKNSA_4DescE(ptr sret(%"class.absl::lts_20230802::Status") align 8 %agg.result, ptr noundef nonnull align 8 dereferenceable(88) %1, ptr noundef nonnull align 8 dereferenceable(16) %4, ptr noundef nonnull align 8 dereferenceable(152) %5)
  ret void
}

; Function Attrs: mustprogress uwtable
define internal void @_ZN6google8protobuf13json_internal16Proto2Descriptor13WithFieldTypeIZNS1_12_GLOBAL__N_110WriteValueINS1_23UnparseProto2DescriptorEEEN4absl12lts_202308026StatusERNS1_10JsonWriterERKNT_3MsgERKNSC_4DescEbEUlRKNS0_10DescriptorEE0_EES9_PKNS0_15FieldDescriptorESC_(ptr noalias sret(%"class.absl::lts_20230802::Status") align 8 %agg.result, ptr noundef %f, ptr %body.coerce0, ptr %body.coerce1) #4 align 2 {
entry:
  %result.ptr = alloca ptr, align 8
  %body = alloca %class.anon.441, align 8
  %f.addr = alloca ptr, align 8
  store ptr %agg.result, ptr %result.ptr, align 8
  %0 = getelementptr inbounds { ptr, ptr }, ptr %body, i32 0, i32 0
  store ptr %body.coerce0, ptr %0, align 8
  %1 = getelementptr inbounds { ptr, ptr }, ptr %body, i32 0, i32 1
  store ptr %body.coerce1, ptr %1, align 8
  store ptr %f, ptr %f.addr, align 8
  %2 = load ptr, ptr %f.addr, align 8
  %call = call noundef ptr @_ZNK6google8protobuf15FieldDescriptor12message_typeEv(ptr noundef nonnull align 8 dereferenceable(88) %2)
  call void @_ZZN6google8protobuf13json_internal12_GLOBAL__N_110WriteValueINS1_23UnparseProto2DescriptorEEEN4absl12lts_202308026StatusERNS1_10JsonWriterERKNT_3MsgERKNSA_4DescEbENKUlRKNS0_10DescriptorEE0_clESJ_(ptr sret(%"class.absl::lts_20230802::Status") align 8 %agg.result, ptr noundef nonnull align 8 dereferenceable(16) %body, ptr noundef nonnull align 8 dereferenceable(152) %call)
  ret void
}