; Function Attrs: mustprogress uwtable
define internal fastcc void @_ZN6google8protobuf13json_internal16Proto2Descriptor13WithFieldTypeIZNS1_12_GLOBAL__N_110WriteValueINS1_23UnparseProto2DescriptorEEEN4absl12lts_202308026StatusERNS1_10JsonWriterERKNT_3MsgERKNSC_4DescEbEUlRKNS0_10DescriptorEE0_EES9_PKNS0_15FieldDescriptorESC_(ptr noalias align 8 %agg.result, ptr noundef nonnull %f, ptr %body.coerce0, ptr %body.coerce1) unnamed_addr #3 align 2 {
entry:
  %call = tail call noundef ptr @_ZNK6google8protobuf15FieldDescriptor12message_typeEv(ptr noundef nonnull align 8 dereferenceable(88) %f)
  %0 = load i64, ptr %body.coerce1, align 8, !noalias !363
  %cmp.i.i.i.i = icmp eq i64 %0, 0
  br i1 %cmp.i.i.i.i, label %_ZNR4absl12lts_202308028StatusOrIPKN6google8protobuf7MessageEEdeEv.exit, label %if.then.i.i

if.then.i.i:                                      ; preds = %entry
  tail call void @_ZN4absl12lts_2023080217internal_statusor6Helper5CrashERKNS0_6StatusE(ptr noundef nonnull align 8 dereferenceable(8) %body.coerce1) #26, !noalias !363
  unreachable

_ZNR4absl12lts_202308028StatusOrIPKN6google8protobuf7MessageEEdeEv.exit: ; preds = %entry
  %1 = getelementptr inbounds i8, ptr %body.coerce1, i64 8
  %2 = load ptr, ptr %1, align 8, !noalias !363
  %call.i1 = tail call noundef ptr @_ZN6google8protobuf13json_internal16Proto2Descriptor13MustHaveFieldERKNS0_10DescriptorEiNS1_12JsonLocation14SourceLocationE(ptr noundef nonnull align 8 dereferenceable(152) %call, i32 noundef 1), !noalias !366
  tail call fastcc void @_ZN6google8protobuf13json_internal12_GLOBAL__N_113WriteRepeatedINS1_23UnparseProto2DescriptorEEEN4absl12lts_202308026StatusERNS1_10JsonWriterERKNT_3MsgENSA_5FieldE(ptr noalias align 8 %agg.result, ptr noundef nonnull align 8 dereferenceable(88) %body.coerce0, ptr noundef nonnull align 8 dereferenceable(16) %2, ptr noundef %call.i1)
  ret void
}